; Function Attrs: mustprogress nounwind uwtable
define void @_ZN3gmx23CheckpointHelperBuilder20setCheckpointHandlerESt10unique_ptrINS_17CheckpointHandlerESt14default_deleteIS2_EE(ptr nocapture noundef nonnull align 8 dereferenceable(84) %0, ptr nocapture noundef %1) local_unnamed_addr #0 align 2 {
  %3 = getelementptr inbounds i8, ptr %0, i64 64
  %4 = load ptr, ptr %1, align 8
  store ptr null, ptr %1, align 8
  %5 = load ptr, ptr %3, align 8
  store ptr %4, ptr %3, align 8
  %.not.i.i.i.i = icmp eq ptr %5, null
  br i1 %.not.i.i.i.i, label %_ZNSt10unique_ptrIN3gmx17CheckpointHandlerESt14default_deleteIS1_EEaSEOS4_.exit, label %_ZNKSt14default_deleteIN3gmx17CheckpointHandlerEEclEPS1_.exit.i.i.i.i

_ZNKSt14default_deleteIN3gmx17CheckpointHandlerEEclEPS1_.exit.i.i.i.i: ; preds = %2
  tail call void @_ZdlPv(ptr noundef nonnull %5) #17
  br label %_ZNSt10unique_ptrIN3gmx17CheckpointHandlerESt14default_deleteIS1_EEaSEOS4_.exit

_ZNSt10unique_ptrIN3gmx17CheckpointHandlerESt14default_deleteIS1_EEaSEOS4_.exit: ; preds = %2, %_ZNKSt14default_deleteIN3gmx17CheckpointHandlerEEclEPS1_.exit.i.i.i.i
  ret void
}